; ModuleID = '60/568.c'
source_filename = "60/568.c"
target datalayout = "e-m:e-p270:32:32-p271:32:32-p272:64:64-i64:64-f80:128-n8:16:32:64-S128"
target triple = "x86_64-pc-linux-gnu"

@.str = private unnamed_addr constant [3 x i8] c"%d\00", align 1
@.str.1 = private unnamed_addr constant [7 x i8] c"%d %d\0A\00", align 1
@.str.2 = private unnamed_addr constant [6 x i8] c"empty\00", align 1

; Function Attrs: noinline nounwind uwtable
define dso_local void @main() #0 {
  %1 = alloca i32, align 4
  %2 = alloca i32, align 4
  %3 = alloca i32, align 4
  %4 = alloca i32, align 4
  %5 = alloca i32, align 4
  %6 = alloca i32, align 4
  store i32 0, i32* %6, align 4
  %7 = call i32 (i8*, ...) @__isoc99_scanf(i8* getelementptr inbounds ([3 x i8], [3 x i8]* @.str, i64 0, i64 0), i32* %2)
  store i32 3, i32* %1, align 4
  br label %8

8:                                                ; preds = %78, %0
  %9 = load i32, i32* %1, align 4
  %10 = load i32, i32* %2, align 4
  %11 = icmp sle i32 %9, %10
  br i1 %11, label %12, label %81

12:                                               ; preds = %8
  store i32 2, i32* %3, align 4
  br label %13

13:                                               ; preds = %27, %12
  %14 = load i32, i32* %3, align 4
  %15 = sitofp i32 %14 to double
  %16 = load i32, i32* %1, align 4
  %17 = sitofp i32 %16 to double
  %18 = call double @sqrt(double %17) #3
  %19 = fcmp ole double %15, %18
  br i1 %19, label %20, label %30

20:                                               ; preds = %13
  %21 = load i32, i32* %1, align 4
  %22 = load i32, i32* %3, align 4
  %23 = srem i32 %21, %22
  %24 = icmp eq i32 %23, 0
  br i1 %24, label %25, label %26

25:                                               ; preds = %20
  br label %30

26:                                               ; preds = %20
  br label %27

27:                                               ; preds = %26
  %28 = load i32, i32* %3, align 4
  %29 = add nsw i32 %28, 1
  store i32 %29, i32* %3, align 4
  br label %13

30:                                               ; preds = %25, %13
  %31 = load i32, i32* %3, align 4
  %32 = sitofp i32 %31 to double
  %33 = load i32, i32* %1, align 4
  %34 = sitofp i32 %33 to double
  %35 = call double @sqrt(double %34) #3
  %36 = fcmp ogt double %32, %35
  br i1 %36, label %37, label %39

37:                                               ; preds = %30
  %38 = load i32, i32* %1, align 4
  store i32 %38, i32* %5, align 4
  br label %39

39:                                               ; preds = %37, %30
  store i32 2, i32* %4, align 4
  br label %40

40:                                               ; preds = %56, %39
  %41 = load i32, i32* %4, align 4
  %42 = sitofp i32 %41 to double
  %43 = load i32, i32* %5, align 4
  %44 = add nsw i32 %43, 2
  %45 = sitofp i32 %44 to double
  %46 = call double @sqrt(double %45) #3
  %47 = fcmp ole double %42, %46
  br i1 %47, label %48, label %59

48:                                               ; preds = %40
  %49 = load i32, i32* %5, align 4
  %50 = add nsw i32 %49, 2
  %51 = load i32, i32* %4, align 4
  %52 = srem i32 %50, %51
  %53 = icmp eq i32 %52, 0
  br i1 %53, label %54, label %55

54:                                               ; preds = %48
  br label %59

55:                                               ; preds = %48
  br label %56

56:                                               ; preds = %55
  %57 = load i32, i32* %4, align 4
  %58 = add nsw i32 %57, 1
  store i32 %58, i32* %4, align 4
  br label %40

59:                                               ; preds = %54, %40
  %60 = load i32, i32* %4, align 4
  %61 = sitofp i32 %60 to double
  %62 = load i32, i32* %5, align 4
  %63 = add nsw i32 %62, 2
  %64 = sitofp i32 %63 to double
  %65 = call double @sqrt(double %64) #3
  %66 = fcmp ogt double %61, %65
  br i1 %66, label %67, label %77

67:                                               ; preds = %59
  %68 = load i32, i32* %5, align 4
  %69 = add nsw i32 %68, 2
  %70 = load i32, i32* %2, align 4
  %71 = icmp sle i32 %69, %70
  br i1 %71, label %72, label %77

72:                                               ; preds = %67
  store i32 1, i32* %6, align 4
  %73 = load i32, i32* %5, align 4
  %74 = load i32, i32* %5, align 4
  %75 = add nsw i32 %74, 2
  %76 = call i32 (i8*, ...) @printf(i8* getelementptr inbounds ([7 x i8], [7 x i8]* @.str.1, i64 0, i64 0), i32 %73, i32 %75)
  br label %77

77:                                               ; preds = %72, %67, %59
  br label %78

78:                                               ; preds = %77
  %79 = load i32, i32* %1, align 4
  %80 = add nsw i32 %79, 2
  store i32 %80, i32* %1, align 4
  br label %8

81:                                               ; preds = %8
  %82 = load i32, i32* %6, align 4
  %83 = icmp eq i32 %82, 0
  br i1 %83, label %84, label %86

84:                                               ; preds = %81
  %85 = call i32 (i8*, ...) @printf(i8* getelementptr inbounds ([6 x i8], [6 x i8]* @.str.2, i64 0, i64 0))
  br label %86

86:                                               ; preds = %84, %81
  ret void
}

declare dso_local i32 @__isoc99_scanf(i8*, ...) #1

; Function Attrs: nounwind
declare dso_local double @sqrt(double) #2

declare dso_local i32 @printf(i8*, ...) #1


!llvm.module.flags = !{!0}
!llvm.ident = !{!1}

!0 = !{i32 1, !"wchar_size", i32 4}
!1 = !{!"clang version 10.0.0-4ubuntu1 "}
